target datalayout = "e-m:e-p270:32:32-p271:32:32-p272:64:64-i64:64-i128:128-f80:128-n8:16:32:64-S128"
target triple = "x86_64-pc-linux-gnu"

; Function Attrs: inlinehint nounwind sspstrong uwtable
define internal i64 @murmur_finish(i64 noundef %0) #3 {
  %2 = alloca i64, align 8
  %3 = alloca i64, align 8
  %4 = alloca i64, align 8
  store i64 %0, ptr %2, align 8, !tbaa !14
  call void @llvm.lifetime.start.p0(i64 8, ptr %3) #14
  store i64 -4658895280553007687, ptr %3, align 8, !tbaa !14
  call void @llvm.lifetime.start.p0(i64 8, ptr %4) #14
  store i64 -7723592293110705685, ptr %4, align 8, !tbaa !14
  %5 = load i64, ptr %2, align 8, !tbaa !14
  %6 = lshr i64 %5, 30
  %7 = load i64, ptr %2, align 8, !tbaa !14
  %8 = xor i64 %7, %6
  store i64 %8, ptr %2, align 8, !tbaa !14
  %9 = load i64, ptr %2, align 8, !tbaa !14
  %10 = mul i64 %9, -4658895280553007687
  store i64 %10, ptr %2, align 8, !tbaa !14
  %11 = load i64, ptr %2, align 8, !tbaa !14
  %12 = lshr i64 %11, 27
  %13 = load i64, ptr %2, align 8, !tbaa !14
  %14 = xor i64 %13, %12
  store i64 %14, ptr %2, align 8, !tbaa !14
  %15 = load i64, ptr %2, align 8, !tbaa !14
  %16 = mul i64 %15, -7723592293110705685
  store i64 %16, ptr %2, align 8, !tbaa !14
  %17 = load i64, ptr %2, align 8, !tbaa !14
  %18 = lshr i64 %17, 31
  %19 = load i64, ptr %2, align 8, !tbaa !14
  %20 = xor i64 %19, %18
  store i64 %20, ptr %2, align 8, !tbaa !14
  %21 = load i64, ptr %2, align 8, !tbaa !14
  call void @llvm.lifetime.end.p0(i64 8, ptr %4) #14
  call void @llvm.lifetime.end.p0(i64 8, ptr %3) #14
  ret i64 %21
}

; Function Attrs: inlinehint nounwind sspstrong uwtable
define internal i64 @murmur_step(i64 noundef %0, i64 noundef %1) #3 {
  %3 = alloca i64, align 8
  %4 = alloca i64, align 8
  store i64 %0, ptr %3, align 8, !tbaa !14
  store i64 %1, ptr %4, align 8, !tbaa !14
  %5 = load i64, ptr %4, align 8, !tbaa !14
  %6 = mul i64 %5, -8663945395140668459
  store i64 %6, ptr %4, align 8, !tbaa !14
  %7 = load i64, ptr %4, align 8, !tbaa !14
  %8 = shl i64 %7, 33
  %9 = load i64, ptr %4, align 8, !tbaa !14
  %10 = lshr i64 %9, 31
  %11 = or i64 %8, %10
  %12 = load i64, ptr %3, align 8, !tbaa !14
  %13 = xor i64 %12, %11
  store i64 %13, ptr %3, align 8, !tbaa !14
  %14 = load i64, ptr %3, align 8, !tbaa !14
  %15 = mul i64 %14, 5545529020109919103
  store i64 %15, ptr %3, align 8, !tbaa !14
  %16 = load i64, ptr %3, align 8, !tbaa !14
  %17 = shl i64 %16, 24
  %18 = load i64, ptr %3, align 8, !tbaa !14
  %19 = lshr i64 %18, 40
  %20 = or i64 %17, %19
  store i64 %20, ptr %3, align 8, !tbaa !14
  %21 = load i64, ptr %3, align 8, !tbaa !14
  ret i64 %21
}

; Function Attrs: nounwind sspstrong willreturn memory(read) uwtable
define dso_local i64 @rb_parser_st_hash(ptr noundef %0, i64 noundef %1, i64 noundef %2) #5 {
  %4 = alloca ptr, align 8
  %5 = alloca i64, align 8
  %6 = alloca i64, align 8
  %7 = alloca ptr, align 8
  %8 = alloca i64, align 8
  %9 = alloca i64, align 8
  store ptr %0, ptr %4, align 8, !tbaa !49
  store i64 %1, ptr %5, align 8, !tbaa !14
  store i64 %2, ptr %6, align 8, !tbaa !14
  call void @llvm.lifetime.start.p0(i64 8, ptr %7) #14
  %10 = load ptr, ptr %4, align 8, !tbaa !49
  store ptr %10, ptr %7, align 8, !tbaa !61
  call void @llvm.lifetime.start.p0(i64 8, ptr %8) #14
  store i64 0, ptr %8, align 8, !tbaa !14
  call void @llvm.lifetime.start.p0(i64 8, ptr %9) #14
  %11 = load i64, ptr %5, align 8, !tbaa !14
  store i64 %11, ptr %9, align 8, !tbaa !14
  %12 = load i64, ptr %5, align 8, !tbaa !14
  %13 = icmp uge i64 %12, 8
  br i1 %13, label %14, label %28

14:                                               ; preds = %3
  br label %15

15:                                               ; preds = %24, %14
  %16 = load i64, ptr %6, align 8, !tbaa !14
  %17 = load ptr, ptr %7, align 8, !tbaa !61
  call void @llvm.assume(i1 true) [ "align"(ptr %17, i64 8) ]
  %18 = load i64, ptr %17, align 8, !tbaa !14
  %19 = call i64 @murmur_step(i64 noundef %16, i64 noundef %18)
  store i64 %19, ptr %6, align 8, !tbaa !14
  %20 = load ptr, ptr %7, align 8, !tbaa !61
  %21 = getelementptr i8, ptr %20, i64 8
  store ptr %21, ptr %7, align 8, !tbaa !61
  %22 = load i64, ptr %5, align 8, !tbaa !14
  %23 = sub i64 %22, 8
  store i64 %23, ptr %5, align 8, !tbaa !14
  br label %24

24:                                               ; preds = %15
  %25 = load i64, ptr %5, align 8, !tbaa !14
  %26 = icmp uge i64 %25, 8
  br i1 %26, label %15, label %27, !llvm.loop !63

27:                                               ; preds = %24
  br label %28

28:                                               ; preds = %27, %3
  store i64 0, ptr %8, align 8, !tbaa !14
  %29 = load i64, ptr %5, align 8, !tbaa !14
  switch i64 %29, label %96 [
    i64 7, label %30
    i64 6, label %38
    i64 5, label %46
    i64 4, label %54
    i64 3, label %60
    i64 2, label %68
    i64 1, label %76
  ]

30:                                               ; preds = %28
  %31 = load ptr, ptr %7, align 8, !tbaa !61
  %32 = getelementptr i8, ptr %31, i64 6
  %33 = load i8, ptr %32, align 1, !tbaa !46
  %34 = zext i8 %33 to i64
  %35 = shl i64 %34, 48
  %36 = load i64, ptr %8, align 8, !tbaa !14
  %37 = or i64 %36, %35
  store i64 %37, ptr %8, align 8, !tbaa !14
  br label %38

38:                                               ; preds = %28, %30
  %39 = load ptr, ptr %7, align 8, !tbaa !61
  %40 = getelementptr i8, ptr %39, i64 5
  %41 = load i8, ptr %40, align 1, !tbaa !46
  %42 = zext i8 %41 to i64
  %43 = shl i64 %42, 40
  %44 = load i64, ptr %8, align 8, !tbaa !14
  %45 = or i64 %44, %43
  store i64 %45, ptr %8, align 8, !tbaa !14
  br label %46

46:                                               ; preds = %28, %38
  %47 = load ptr, ptr %7, align 8, !tbaa !61
  %48 = getelementptr i8, ptr %47, i64 4
  %49 = load i8, ptr %48, align 1, !tbaa !46
  %50 = zext i8 %49 to i64
  %51 = shl i64 %50, 32
  %52 = load i64, ptr %8, align 8, !tbaa !14
  %53 = or i64 %52, %51
  store i64 %53, ptr %8, align 8, !tbaa !14
  br label %54

54:                                               ; preds = %28, %46
  %55 = load ptr, ptr %7, align 8, !tbaa !61
  call void @llvm.assume(i1 true) [ "align"(ptr %55, i64 8) ]
  %56 = load i32, ptr %55, align 4, !tbaa !16
  %57 = zext i32 %56 to i64
  %58 = load i64, ptr %8, align 8, !tbaa !14
  %59 = or i64 %58, %57
  store i64 %59, ptr %8, align 8, !tbaa !14
  br label %83

60:                                               ; preds = %28
  %61 = load ptr, ptr %7, align 8, !tbaa !61
  %62 = getelementptr i8, ptr %61, i64 2
  %63 = load i8, ptr %62, align 1, !tbaa !46
  %64 = zext i8 %63 to i64
  %65 = shl i64 %64, 16
  %66 = load i64, ptr %8, align 8, !tbaa !14
  %67 = or i64 %66, %65
  store i64 %67, ptr %8, align 8, !tbaa !14
  br label %68

68:                                               ; preds = %28, %60
  %69 = load ptr, ptr %7, align 8, !tbaa !61
  %70 = getelementptr i8, ptr %69, i64 1
  %71 = load i8, ptr %70, align 1, !tbaa !46
  %72 = zext i8 %71 to i64
  %73 = shl i64 %72, 8
  %74 = load i64, ptr %8, align 8, !tbaa !14
  %75 = or i64 %74, %73
  store i64 %75, ptr %8, align 8, !tbaa !14
  br label %76

76:                                               ; preds = %28, %68
  %77 = load ptr, ptr %7, align 8, !tbaa !61
  %78 = getelementptr i8, ptr %77, i64 0
  %79 = load i8, ptr %78, align 1, !tbaa !46
  %80 = zext i8 %79 to i64
  %81 = load i64, ptr %8, align 8, !tbaa !14
  %82 = or i64 %81, %80
  store i64 %82, ptr %8, align 8, !tbaa !14
  br label %83

83:                                               ; preds = %76, %54
  %84 = load i64, ptr %8, align 8, !tbaa !14
  %85 = load i64, ptr %6, align 8, !tbaa !14
  %86 = xor i64 %85, %84
  store i64 %86, ptr %6, align 8, !tbaa !14
  %87 = load i64, ptr %8, align 8, !tbaa !14
  %88 = shl i64 %87, 7
  %89 = load i64, ptr %8, align 8, !tbaa !14
  %90 = lshr i64 %89, 57
  %91 = or i64 %88, %90
  %92 = load i64, ptr %6, align 8, !tbaa !14
  %93 = sub i64 %92, %91
  store i64 %93, ptr %6, align 8, !tbaa !14
  %94 = load i64, ptr %6, align 8, !tbaa !14
  %95 = mul i64 %94, 5545529020109919103
  store i64 %95, ptr %6, align 8, !tbaa !14
  br label %96

96:                                               ; preds = %83, %28
  %97 = load i64, ptr %9, align 8, !tbaa !14
  %98 = load i64, ptr %6, align 8, !tbaa !14
  %99 = xor i64 %98, %97
  store i64 %99, ptr %6, align 8, !tbaa !14
  %100 = load i64, ptr %6, align 8, !tbaa !14
  %101 = call i64 @murmur_finish(i64 noundef %100)
  call void @llvm.lifetime.end.p0(i64 8, ptr %9) #14
  call void @llvm.lifetime.end.p0(i64 8, ptr %8) #14
  call void @llvm.lifetime.end.p0(i64 8, ptr %7) #14
  ret i64 %101
}